---
triple:          'arm64-apple-darwin'
binary-path:     '/Users/dikshant/Desktop/Practice/designPattern/observer'
relocations:
  - { offsetInCU: 0x43B7, offset: 0x43B7, size: 0x8, addend: 0x0, symName: __ZNSt3__124__put_character_sequenceB7v160006IcNS_11char_traitsIcEEEERNS_13basic_ostreamIT_T0_EES7_PKS4_m, symObjAddr: 0x12E0, symBinAddr: 0x10000538C, symSize: 0x1F4 }
  - { offsetInCU: 0x620D, offset: 0x620D, size: 0x8, addend: 0x0, symName: __ZNSt3__119__debug_db_insert_cB7v160006INS_6vectorIP10SubscriberNS_9allocatorIS3_EEEEEEvPT_, symObjAddr: 0x494, symBinAddr: 0x100004540, symSize: 0x10 }
  - { offsetInCU: 0x623E, offset: 0x623E, size: 0x8, addend: 0x0, symName: __ZNSt3__119__debug_db_insert_cB7v160006INS_12basic_stringIcNS_11char_traitsIcEENS_9allocatorIcEEEEEEvPT_, symObjAddr: 0x5EC, symBinAddr: 0x100004698, symSize: 0x10 }
  - { offsetInCU: 0x626F, offset: 0x626F, size: 0x8, addend: 0x0, symName: __ZNSt3__130__libcpp_is_constant_evaluatedB7v160006Ev, symObjAddr: 0x78C, symBinAddr: 0x100004838, symSize: 0xC }
  - { offsetInCU: 0x628C, offset: 0x628C, size: 0x8, addend: 0x0, symName: __ZNSt3__117__libcpp_allocateB7v160006Emm, symObjAddr: 0xA84, symBinAddr: 0x100004B30, symSize: 0x28 }
  - { offsetInCU: 0x62C9, offset: 0x62C9, size: 0x8, addend: 0x0, symName: __ZNSt3__121__libcpp_operator_newB7v160006IJmEEEPvDpT_, symObjAddr: 0xAC0, symBinAddr: 0x100004B6C, symSize: 0x24 }
  - { offsetInCU: 0x6302, offset: 0x6302, size: 0x8, addend: 0x0, symName: __ZNSt3__118__debug_db_erase_cB7v160006INS_6vectorIP10SubscriberNS_9allocatorIS3_EEEEEEvPT_, symObjAddr: 0xD00, symBinAddr: 0x100004DAC, symSize: 0x10 }
  - { offsetInCU: 0x6333, offset: 0x6333, size: 0x8, addend: 0x0, symName: __ZNSt3__112__to_addressB7v160006IP10SubscriberEEPT_S4_, symObjAddr: 0xE44, symBinAddr: 0x100004EF0, symSize: 0x14 }
  - { offsetInCU: 0x6368, offset: 0x6368, size: 0x8, addend: 0x0, symName: __ZNSt3__119__libcpp_deallocateB7v160006EPvmm, symObjAddr: 0xFA8, symBinAddr: 0x100005054, symSize: 0x30 }
  - { offsetInCU: 0x63B0, offset: 0x63B0, size: 0x8, addend: 0x0, symName: __ZNSt3__127__do_deallocate_handle_sizeB7v160006IJEEEvPvmDpT_, symObjAddr: 0xFD8, symBinAddr: 0x100005084, symSize: 0x28 }
  - { offsetInCU: 0x63EE, offset: 0x63EE, size: 0x8, addend: 0x0, symName: __ZNSt3__124__libcpp_operator_deleteB7v160006IJPvEEEvDpT_, symObjAddr: 0x1000, symBinAddr: 0x1000050AC, symSize: 0x24 }
  - { offsetInCU: 0x6423, offset: 0x6423, size: 0x8, addend: 0x0, symName: __ZNSt3__1lsB7v160006IcNS_11char_traitsIcEENS_9allocatorIcEEEERNS_13basic_ostreamIT_T0_EES9_RKNS_12basic_stringIS6_S7_T1_EE, symObjAddr: 0x11C8, symBinAddr: 0x100005274, symSize: 0x4C }
  - { offsetInCU: 0x647B, offset: 0x647B, size: 0x8, addend: 0x0, symName: __ZNSt3__1lsB7v160006INS_11char_traitsIcEEEERNS_13basic_ostreamIcT_EES6_PKc, symObjAddr: 0x1214, symBinAddr: 0x1000052C0, symSize: 0x48 }
  - { offsetInCU: 0x64C1, offset: 0x64C1, size: 0x8, addend: 0x0, symName: __ZNSt3__14endlB7v160006IcNS_11char_traitsIcEEEERNS_13basic_ostreamIT_T0_EES7_, symObjAddr: 0x1288, symBinAddr: 0x100005334, symSize: 0x58 }
  - { offsetInCU: 0x6501, offset: 0x6501, size: 0x8, addend: 0x0, symName: __ZNSt3__116__pad_and_outputB7v160006IcNS_11char_traitsIcEEEENS_19ostreambuf_iteratorIT_T0_EES6_PKS4_S8_S8_RNS_8ios_baseES4_, symObjAddr: 0x156C, symBinAddr: 0x100005618, symSize: 0x248 }
  - { offsetInCU: 0x65D0, offset: 0x65D0, size: 0x8, addend: 0x0, symName: __ZNSt3__19use_facetB7v160006INS_5ctypeIcEEEERKT_RKNS_6localeE, symObjAddr: 0x1B24, symBinAddr: 0x100005BD0, symSize: 0x2C }
  - { offsetInCU: 0x6A9F, offset: 0x6A9F, size: 0x8, addend: 0x0, symName: __ZNSt3__112__to_addressB7v160006IKcEEPT_S3_, symObjAddr: 0x1BBC, symBinAddr: 0x100005C68, symSize: 0x14 }
  - { offsetInCU: 0x6B07, offset: 0x6B07, size: 0x8, addend: 0x0, symName: __ZNSt3__118__constexpr_strlenB7v160006EPKc, symObjAddr: 0x1DD8, symBinAddr: 0x100005E84, symSize: 0x24 }
  - { offsetInCU: 0x6B33, offset: 0x6B33, size: 0x8, addend: 0x0, symName: __ZNSt3__13maxB7v160006ImEERKT_S3_S3_, symObjAddr: 0x2434, symBinAddr: 0x1000064E0, symSize: 0x2C }
  - { offsetInCU: 0x6B76, offset: 0x6B76, size: 0x8, addend: 0x0, symName: __ZNSt3__13minB7v160006ImEERKT_S3_S3_, symObjAddr: 0x2460, symBinAddr: 0x10000650C, symSize: 0x2C }
  - { offsetInCU: 0x6DBA, offset: 0x6DBA, size: 0x8, addend: 0x0, symName: __ZNSt3__13minB7v160006ImNS_6__lessImmEEEERKT_S5_S5_T0_, symObjAddr: 0x24EC, symBinAddr: 0x100006598, symSize: 0x54 }
  - { offsetInCU: 0x6E4F, offset: 0x6E4F, size: 0x8, addend: 0x0, symName: __ZNSt3__120__throw_length_errorB7v160006EPKc, symObjAddr: 0x25C8, symBinAddr: 0x100006674, symSize: 0x64 }
  - { offsetInCU: 0x6E77, offset: 0x6E77, size: 0x8, addend: 0x0, symName: __ZNSt3__13maxB7v160006ImNS_6__lessImmEEEERKT_S5_S5_T0_, symObjAddr: 0x26AC, symBinAddr: 0x100006758, symSize: 0x54 }
  - { offsetInCU: 0x6ED1, offset: 0x6ED1, size: 0x8, addend: 0x0, symName: __ZNSt3__119__allocate_at_leastB7v160006INS_9allocatorIP10SubscriberEEEENS_19__allocation_resultINS_16allocator_traitsIT_E7pointerEEERS7_m, symObjAddr: 0x2810, symBinAddr: 0x1000068BC, symSize: 0x40 }
  - { offsetInCU: 0x6F14, offset: 0x6F14, size: 0x8, addend: 0x0, symName: __ZNSt3__142__uninitialized_allocator_move_if_noexceptB7v160006INS_9allocatorIP10SubscriberEENS_16reverse_iteratorIPS3_EES7_S3_vEET1_RT_T0_SB_S8_, symObjAddr: 0x29F0, symBinAddr: 0x100006A9C, symSize: 0xE8 }
  - { offsetInCU: 0x6F91, offset: 0x6F91, size: 0x8, addend: 0x0, symName: __ZNSt3__14swapB7v160006IPP10SubscriberEEvRT_S5_, symObjAddr: 0x2B24, symBinAddr: 0x100006BD0, symSize: 0x3C }
  - { offsetInCU: 0x6FE2, offset: 0x6FE2, size: 0x8, addend: 0x0, symName: __ZNSt3__125__debug_db_invalidate_allB7v160006INS_6vectorIP10SubscriberNS_9allocatorIS3_EEEEEEvPT_, symObjAddr: 0x2C0C, symBinAddr: 0x100006CB8, symSize: 0x10 }
  - { offsetInCU: 0x7013, offset: 0x7013, size: 0x8, addend: 0x0, symName: __ZNSt3__1neB7v160006IPP10SubscriberS3_EEbRKNS_16reverse_iteratorIT_EERKNS4_IT0_EE, symObjAddr: 0x2C1C, symBinAddr: 0x100006CC8, symSize: 0x48 }
  - { offsetInCU: 0x7084, offset: 0x7084, size: 0x8, addend: 0x0, symName: __ZNSt3__114__construct_atB7v160006IP10SubscriberJS2_EPS2_EEPT_S5_DpOT0_, symObjAddr: 0x2C64, symBinAddr: 0x100006D10, symSize: 0x2C }
  - { offsetInCU: 0x70F4, offset: 0x70F4, size: 0x8, addend: 0x0, symName: __ZNSt3__112__to_addressB7v160006INS_16reverse_iteratorIPP10SubscriberEEvEENS_5decayIDTclsr19__to_address_helperIT_EE6__callclsr3stdE7declvalIRKS7_EEEEE4typeES9_, symObjAddr: 0x2C90, symBinAddr: 0x100006D3C, symSize: 0x24 }
  - { offsetInCU: 0x712A, offset: 0x712A, size: 0x8, addend: 0x0, symName: __ZNSt3__14moveB7v160006INS_16reverse_iteratorIPP10SubscriberEES5_EET0_T_S7_S6_, symObjAddr: 0x2CFC, symBinAddr: 0x100006DA8, symSize: 0x78 }
  - { offsetInCU: 0x71AD, offset: 0x71AD, size: 0x8, addend: 0x0, symName: __ZNSt3__16__moveB7v160006INS_17_ClassicAlgPolicyENS_16reverse_iteratorIPP10SubscriberEES6_S6_EENS_4pairIT0_T2_EES8_T1_S9_, symObjAddr: 0x2DE4, symBinAddr: 0x100006E90, symSize: 0x64 }
  - { offsetInCU: 0x7219, offset: 0x7219, size: 0x8, addend: 0x0, symName: __ZNSt3__123__dispatch_copy_or_moveB7v160006INS_17_ClassicAlgPolicyENS_11__move_loopIS1_EENS_14__move_trivialENS_16reverse_iteratorIPP10SubscriberEES9_S9_EENS_4pairIT2_T4_EESB_T3_SC_, symObjAddr: 0x2E48, symBinAddr: 0x100006EF4, symSize: 0x7C }
  - { offsetInCU: 0x7297, offset: 0x7297, size: 0x8, addend: 0x0, symName: __ZNSt3__121__unwrap_and_dispatchB7v160006INS_10__overloadINS_11__move_loopINS_17_ClassicAlgPolicyEEENS_14__move_trivialEEENS_16reverse_iteratorIPP10SubscriberEESB_SB_Li0EEENS_4pairIT0_T2_EESD_T1_SE_, symObjAddr: 0x2EC4, symBinAddr: 0x100006F70, symSize: 0x12C }
  - { offsetInCU: 0x7327, offset: 0x7327, size: 0x8, addend: 0x0, symName: __ZNSt3__114__unwrap_rangeB7v160006INS_16reverse_iteratorIPP10SubscriberEES5_EENS_4pairIT0_S7_EET_S9_, symObjAddr: 0x2FF0, symBinAddr: 0x10000709C, symSize: 0x84 }
  - { offsetInCU: 0x747B, offset: 0x747B, size: 0x8, addend: 0x0, symName: __ZNSt3__113__unwrap_iterB7v160006INS_16reverse_iteratorIPP10SubscriberEENS_18__unwrap_iter_implIS5_Lb0EEELi0EEEDTclsrT0_8__unwrapclsr3stdE7declvalIT_EEEES9_, symObjAddr: 0x3114, symBinAddr: 0x1000071C0, symSize: 0x44 }
  - { offsetInCU: 0x74BF, offset: 0x74BF, size: 0x8, addend: 0x0, symName: __ZNSt3__19make_pairB7v160006INS_16reverse_iteratorIPP10SubscriberEES5_EENS_4pairINS_18__unwrap_ref_decayIT_E4typeENS7_IT0_E4typeEEEOS8_OSB_, symObjAddr: 0x3158, symBinAddr: 0x100007204, symSize: 0x38 }
  - { offsetInCU: 0x750E, offset: 0x750E, size: 0x8, addend: 0x0, symName: __ZNSt3__114__rewrap_rangeB7v160006INS_16reverse_iteratorIPP10SubscriberEES5_EET_S6_T0_, symObjAddr: 0x3190, symBinAddr: 0x10000723C, symSize: 0x5C }
  - { offsetInCU: 0x755A, offset: 0x755A, size: 0x8, addend: 0x0, symName: __ZNSt3__113__rewrap_iterB7v160006INS_16reverse_iteratorIPP10SubscriberEES5_NS_18__unwrap_iter_implIS5_Lb0EEEEET_S8_T0_, symObjAddr: 0x31EC, symBinAddr: 0x100007298, symSize: 0x88 }
  - { offsetInCU: 0x783F, offset: 0x783F, size: 0x8, addend: 0x0, symName: __ZSt28__throw_bad_array_new_lengthB7v160006v, symObjAddr: 0xA50, symBinAddr: 0x100004AFC, symSize: 0x34 }
  - { offsetInCU: 0x7E7F, offset: 0x7E7F, size: 0x8, addend: 0x0, symName: __ZNSt3__16vectorIP10SubscriberNS_9allocatorIS2_EEE26__swap_out_circular_bufferERNS_14__split_bufferIS2_RS4_EE, symObjAddr: 0x2260, symBinAddr: 0x10000630C, symSize: 0x118 }
  - { offsetInCU: 0xA27B, offset: 0xA27B, size: 0x8, addend: 0x0, symName: _main, symObjAddr: 0x0, symBinAddr: 0x1000040AC, symSize: 0x1BC }
  - { offsetInCU: 0xA357, offset: 0xA357, size: 0x8, addend: 0x0, symName: __ZN9PublisherC1Ev, symObjAddr: 0x1BC, symBinAddr: 0x100004268, symSize: 0x2C }
  - { offsetInCU: 0xA387, offset: 0xA387, size: 0x8, addend: 0x0, symName: __ZNSt3__112basic_stringIcNS_11char_traitsIcEENS_9allocatorIcEEEC1B7v160006IDnEEPKc, symObjAddr: 0x1E8, symBinAddr: 0x100004294, symSize: 0x34 }
  - { offsetInCU: 0xA3C4, offset: 0xA3C4, size: 0x8, addend: 0x0, symName: __ZN10SubscriberC1ENSt3__112basic_stringIcNS0_11char_traitsIcEENS0_9allocatorIcEEEE, symObjAddr: 0x21C, symBinAddr: 0x1000042C8, symSize: 0x34 }
  - { offsetInCU: 0xA3FC, offset: 0xA3FC, size: 0x8, addend: 0x0, symName: __ZN9Publisher6attachEP10Subscriber, symObjAddr: 0x25C, symBinAddr: 0x100004308, symSize: 0x30 }
  - { offsetInCU: 0xA42F, offset: 0xA42F, size: 0x8, addend: 0x0, symName: __ZN9Publisher8setStateENSt3__112basic_stringIcNS0_11char_traitsIcEENS0_9allocatorIcEEEE, symObjAddr: 0x28C, symBinAddr: 0x100004338, symSize: 0x3C }
  - { offsetInCU: 0xA463, offset: 0xA463, size: 0x8, addend: 0x0, symName: __ZN10SubscriberD1Ev, symObjAddr: 0x2C8, symBinAddr: 0x100004374, symSize: 0x2C }
  - { offsetInCU: 0xA48E, offset: 0xA48E, size: 0x8, addend: 0x0, symName: __ZN9PublisherD1Ev, symObjAddr: 0x2F4, symBinAddr: 0x1000043A0, symSize: 0x2C }
  - { offsetInCU: 0xA4B9, offset: 0xA4B9, size: 0x8, addend: 0x0, symName: __ZN9PublisherC2Ev, symObjAddr: 0x320, symBinAddr: 0x1000043CC, symSize: 0x68 }
  - { offsetInCU: 0xA4E4, offset: 0xA4E4, size: 0x8, addend: 0x0, symName: __ZNSt3__16vectorIP10SubscriberNS_9allocatorIS2_EEEC1B7v160006Ev, symObjAddr: 0x388, symBinAddr: 0x100004434, symSize: 0x2C }
  - { offsetInCU: 0xA50D, offset: 0xA50D, size: 0x8, addend: 0x0, symName: __ZNSt3__112basic_stringIcNS_11char_traitsIcEENS_9allocatorIcEEEC1B7v160006Ev, symObjAddr: 0x3B4, symBinAddr: 0x100004460, symSize: 0x2C }
  - { offsetInCU: 0xA536, offset: 0xA536, size: 0x8, addend: 0x0, symName: __ZNSt3__16vectorIP10SubscriberNS_9allocatorIS2_EEED1B7v160006Ev, symObjAddr: 0x3E0, symBinAddr: 0x10000448C, symSize: 0x2C }
  - { offsetInCU: 0xA55F, offset: 0xA55F, size: 0x8, addend: 0x0, symName: __ZNSt3__16vectorIP10SubscriberNS_9allocatorIS2_EEEC2B7v160006Ev, symObjAddr: 0x40C, symBinAddr: 0x1000044B8, symSize: 0x4C }
  - { offsetInCU: 0xA592, offset: 0xA592, size: 0x8, addend: 0x0, symName: __ZNSt3__117__compressed_pairIPP10SubscriberNS_9allocatorIS2_EEEC1B7v160006IDnNS_18__default_init_tagEEEOT_OT0_, symObjAddr: 0x458, symBinAddr: 0x100004504, symSize: 0x3C }
  - { offsetInCU: 0xA5E9, offset: 0xA5E9, size: 0x8, addend: 0x0, symName: __ZNSt3__117__compressed_pairIPP10SubscriberNS_9allocatorIS2_EEEC2B7v160006IDnNS_18__default_init_tagEEEOT_OT0_, symObjAddr: 0x4A4, symBinAddr: 0x100004550, symSize: 0x40 }
  - { offsetInCU: 0xA640, offset: 0xA640, size: 0x8, addend: 0x0, symName: __ZNSt3__122__compressed_pair_elemIPP10SubscriberLi0ELb0EEC2B7v160006IDnvEEOT_, symObjAddr: 0x4E4, symBinAddr: 0x100004590, symSize: 0x1C }
  - { offsetInCU: 0xA681, offset: 0xA681, size: 0x8, addend: 0x0, symName: __ZNSt3__122__compressed_pair_elemINS_9allocatorIP10SubscriberEELi1ELb1EEC2B7v160006ENS_18__default_init_tagE, symObjAddr: 0x500, symBinAddr: 0x1000045AC, symSize: 0x2C }
  - { offsetInCU: 0xA6B5, offset: 0xA6B5, size: 0x8, addend: 0x0, symName: __ZNSt3__19allocatorIP10SubscriberEC2B7v160006Ev, symObjAddr: 0x52C, symBinAddr: 0x1000045D8, symSize: 0x2C }
  - { offsetInCU: 0xA6DE, offset: 0xA6DE, size: 0x8, addend: 0x0, symName: __ZNSt3__116__non_trivial_ifILb1ENS_9allocatorIP10SubscriberEEEC2B7v160006Ev, symObjAddr: 0x558, symBinAddr: 0x100004604, symSize: 0x14 }
  - { offsetInCU: 0xA707, offset: 0xA707, size: 0x8, addend: 0x0, symName: __ZNSt3__112basic_stringIcNS_11char_traitsIcEENS_9allocatorIcEEEC2B7v160006Ev, symObjAddr: 0x56C, symBinAddr: 0x100004618, symSize: 0x44 }
  - { offsetInCU: 0xA730, offset: 0xA730, size: 0x8, addend: 0x0, symName: __ZNSt3__117__compressed_pairINS_12basic_stringIcNS_11char_traitsIcEENS_9allocatorIcEEE5__repES5_EC1B7v160006INS_18__default_init_tagESA_EEOT_OT0_, symObjAddr: 0x5B0, symBinAddr: 0x10000465C, symSize: 0x3C }
  - { offsetInCU: 0xA787, offset: 0xA787, size: 0x8, addend: 0x0, symName: __ZNSt3__112basic_stringIcNS_11char_traitsIcEENS_9allocatorIcEEE14__default_initB7v160006Ev, symObjAddr: 0x5FC, symBinAddr: 0x1000046A8, symSize: 0xB0 }
  - { offsetInCU: 0xA7D9, offset: 0xA7D9, size: 0x8, addend: 0x0, symName: __ZNSt3__117__compressed_pairINS_12basic_stringIcNS_11char_traitsIcEENS_9allocatorIcEEE5__repES5_EC2B7v160006INS_18__default_init_tagESA_EEOT_OT0_, symObjAddr: 0x6AC, symBinAddr: 0x100004758, symSize: 0x3C }
  - { offsetInCU: 0xA830, offset: 0xA830, size: 0x8, addend: 0x0, symName: __ZNSt3__122__compressed_pair_elemINS_12basic_stringIcNS_11char_traitsIcEENS_9allocatorIcEEE5__repELi0ELb0EEC2B7v160006ENS_18__default_init_tagE, symObjAddr: 0x6E8, symBinAddr: 0x100004794, symSize: 0x14 }
  - { offsetInCU: 0xA864, offset: 0xA864, size: 0x8, addend: 0x0, symName: __ZNSt3__122__compressed_pair_elemINS_9allocatorIcEELi1ELb1EEC2B7v160006ENS_18__default_init_tagE, symObjAddr: 0x6FC, symBinAddr: 0x1000047A8, symSize: 0x2C }
  - { offsetInCU: 0xA898, offset: 0xA898, size: 0x8, addend: 0x0, symName: __ZNSt3__19allocatorIcEC2B7v160006Ev, symObjAddr: 0x728, symBinAddr: 0x1000047D4, symSize: 0x2C }
  - { offsetInCU: 0xA8C1, offset: 0xA8C1, size: 0x8, addend: 0x0, symName: __ZNSt3__116__non_trivial_ifILb1ENS_9allocatorIcEEEC2B7v160006Ev, symObjAddr: 0x754, symBinAddr: 0x100004800, symSize: 0x14 }
  - { offsetInCU: 0xA8EA, offset: 0xA8EA, size: 0x8, addend: 0x0, symName: __ZNSt3__117__compressed_pairINS_12basic_stringIcNS_11char_traitsIcEENS_9allocatorIcEEE5__repES5_E5firstB7v160006Ev, symObjAddr: 0x768, symBinAddr: 0x100004814, symSize: 0x24 }
  - { offsetInCU: 0xA90F, offset: 0xA90F, size: 0x8, addend: 0x0, symName: __ZNSt3__112basic_stringIcNS_11char_traitsIcEENS_9allocatorIcEEE11__recommendB7v160006Em, symObjAddr: 0x798, symBinAddr: 0x100004844, symSize: 0x9C }
  - { offsetInCU: 0xA942, offset: 0xA942, size: 0x8, addend: 0x0, symName: __ZNSt3__116allocator_traitsINS_9allocatorIcEEE8allocateB7v160006ERS2_m, symObjAddr: 0x834, symBinAddr: 0x1000048E0, symSize: 0x2C }
  - { offsetInCU: 0xA975, offset: 0xA975, size: 0x8, addend: 0x0, symName: __ZNSt3__112basic_stringIcNS_11char_traitsIcEENS_9allocatorIcEEE7__allocB7v160006Ev, symObjAddr: 0x860, symBinAddr: 0x10000490C, symSize: 0x24 }
  - { offsetInCU: 0xA99A, offset: 0xA99A, size: 0x8, addend: 0x0, symName: __ZNSt3__112basic_stringIcNS_11char_traitsIcEENS_9allocatorIcEEE16__begin_lifetimeB7v160006EPcm, symObjAddr: 0x884, symBinAddr: 0x100004930, symSize: 0x14 }
  - { offsetInCU: 0xA9CD, offset: 0xA9CD, size: 0x8, addend: 0x0, symName: __ZNSt3__112basic_stringIcNS_11char_traitsIcEENS_9allocatorIcEEE18__set_long_pointerB7v160006EPc, symObjAddr: 0x898, symBinAddr: 0x100004944, symSize: 0x38 }
  - { offsetInCU: 0xAA01, offset: 0xAA01, size: 0x8, addend: 0x0, symName: __ZNSt3__112basic_stringIcNS_11char_traitsIcEENS_9allocatorIcEEE14__set_long_capB7v160006Em, symObjAddr: 0x8D0, symBinAddr: 0x10000497C, symSize: 0x70 }
  - { offsetInCU: 0xAA35, offset: 0xAA35, size: 0x8, addend: 0x0, symName: __ZNSt3__112basic_stringIcNS_11char_traitsIcEENS_9allocatorIcEEE15__set_long_sizeB7v160006Em, symObjAddr: 0x940, symBinAddr: 0x1000049EC, symSize: 0x38 }
  - { offsetInCU: 0xAA69, offset: 0xAA69, size: 0x8, addend: 0x0, symName: __ZNSt3__122__compressed_pair_elemINS_12basic_stringIcNS_11char_traitsIcEENS_9allocatorIcEEE5__repELi0ELb0EE5__getB7v160006Ev, symObjAddr: 0x978, symBinAddr: 0x100004A24, symSize: 0x14 }
  - { offsetInCU: 0xAA8E, offset: 0xAA8E, size: 0x8, addend: 0x0, symName: __ZNSt3__112basic_stringIcNS_11char_traitsIcEENS_9allocatorIcEEE10__align_itB7v160006ILm16EEEmm, symObjAddr: 0x98C, symBinAddr: 0x100004A38, symSize: 0x1C }
  - { offsetInCU: 0xAABC, offset: 0xAABC, size: 0x8, addend: 0x0, symName: __ZNSt3__19allocatorIcE8allocateB7v160006Em, symObjAddr: 0x9A8, symBinAddr: 0x100004A54, symSize: 0x84 }
  - { offsetInCU: 0xAAF9, offset: 0xAAF9, size: 0x8, addend: 0x0, symName: __ZNSt3__116allocator_traitsINS_9allocatorIcEEE8max_sizeB7v160006IS2_vEEmRKS2_, symObjAddr: 0xA2C, symBinAddr: 0x100004AD8, symSize: 0x24 }
  - { offsetInCU: 0xAB27, offset: 0xAB27, size: 0x8, addend: 0x0, symName: __ZNKSt3__19allocatorIcE8max_sizeB7v160006Ev, symObjAddr: 0xAAC, symBinAddr: 0x100004B58, symSize: 0x14 }
  - { offsetInCU: 0xAB4C, offset: 0xAB4C, size: 0x8, addend: 0x0, symName: __ZNSt3__117__compressed_pairINS_12basic_stringIcNS_11char_traitsIcEENS_9allocatorIcEEE5__repES5_E6secondB7v160006Ev, symObjAddr: 0xAE4, symBinAddr: 0x100004B90, symSize: 0x24 }
  - { offsetInCU: 0xAB71, offset: 0xAB71, size: 0x8, addend: 0x0, symName: __ZNSt3__122__compressed_pair_elemINS_9allocatorIcEELi1ELb1EE5__getB7v160006Ev, symObjAddr: 0xB08, symBinAddr: 0x100004BB4, symSize: 0x14 }
  - { offsetInCU: 0xAB96, offset: 0xAB96, size: 0x8, addend: 0x0, symName: __ZNSt3__16vectorIP10SubscriberNS_9allocatorIS2_EEED2B7v160006Ev, symObjAddr: 0xB1C, symBinAddr: 0x100004BC8, symSize: 0x3C }
  - { offsetInCU: 0xABBF, offset: 0xABBF, size: 0x8, addend: 0x0, symName: __ZNSt3__16vectorIP10SubscriberNS_9allocatorIS2_EEE16__destroy_vectorC1ERS5_, symObjAddr: 0xB58, symBinAddr: 0x100004C04, symSize: 0x34 }
  - { offsetInCU: 0xABF7, offset: 0xABF7, size: 0x8, addend: 0x0, symName: __ZNSt3__16vectorIP10SubscriberNS_9allocatorIS2_EEE16__destroy_vectorclB7v160006Ev, symObjAddr: 0xB8C, symBinAddr: 0x100004C38, symSize: 0x9C }
  - { offsetInCU: 0xAC1C, offset: 0xAC1C, size: 0x8, addend: 0x0, symName: __ZNSt3__16vectorIP10SubscriberNS_9allocatorIS2_EEE16__destroy_vectorC2ERS5_, symObjAddr: 0xC28, symBinAddr: 0x100004CD4, symSize: 0x20 }
  - { offsetInCU: 0xAC54, offset: 0xAC54, size: 0x8, addend: 0x0, symName: __ZNKSt3__16vectorIP10SubscriberNS_9allocatorIS2_EEE17__annotate_deleteB7v160006Ev, symObjAddr: 0xC48, symBinAddr: 0x100004CF4, symSize: 0xB8 }
  - { offsetInCU: 0xAC79, offset: 0xAC79, size: 0x8, addend: 0x0, symName: __ZNSt3__16vectorIP10SubscriberNS_9allocatorIS2_EEE7__clearB7v160006Ev, symObjAddr: 0xD10, symBinAddr: 0x100004DBC, symSize: 0x28 }
  - { offsetInCU: 0xAC9E, offset: 0xAC9E, size: 0x8, addend: 0x0, symName: __ZNSt3__116allocator_traitsINS_9allocatorIP10SubscriberEEE10deallocateB7v160006ERS4_PS3_m, symObjAddr: 0xD38, symBinAddr: 0x100004DE4, symSize: 0x34 }
  - { offsetInCU: 0xACE0, offset: 0xACE0, size: 0x8, addend: 0x0, symName: __ZNSt3__16vectorIP10SubscriberNS_9allocatorIS2_EEE7__allocB7v160006Ev, symObjAddr: 0xD6C, symBinAddr: 0x100004E18, symSize: 0x28 }
  - { offsetInCU: 0xAD05, offset: 0xAD05, size: 0x8, addend: 0x0, symName: __ZNKSt3__16vectorIP10SubscriberNS_9allocatorIS2_EEE8capacityB7v160006Ev, symObjAddr: 0xD94, symBinAddr: 0x100004E40, symSize: 0x40 }
  - { offsetInCU: 0xAD2A, offset: 0xAD2A, size: 0x8, addend: 0x0, symName: __ZNKSt3__16vectorIP10SubscriberNS_9allocatorIS2_EEE31__annotate_contiguous_containerB7v160006EPKvS7_S7_S7_, symObjAddr: 0xDD4, symBinAddr: 0x100004E80, symSize: 0x20 }
  - { offsetInCU: 0xAD7B, offset: 0xAD7B, size: 0x8, addend: 0x0, symName: __ZNKSt3__16vectorIP10SubscriberNS_9allocatorIS2_EEE4dataB7v160006Ev, symObjAddr: 0xDF4, symBinAddr: 0x100004EA0, symSize: 0x28 }
  - { offsetInCU: 0xADA0, offset: 0xADA0, size: 0x8, addend: 0x0, symName: __ZNKSt3__16vectorIP10SubscriberNS_9allocatorIS2_EEE4sizeB7v160006Ev, symObjAddr: 0xE1C, symBinAddr: 0x100004EC8, symSize: 0x28 }
  - { offsetInCU: 0xADC5, offset: 0xADC5, size: 0x8, addend: 0x0, symName: __ZNSt3__16vectorIP10SubscriberNS_9allocatorIS2_EEE22__base_destruct_at_endB7v160006EPS2_, symObjAddr: 0xE58, symBinAddr: 0x100004F04, symSize: 0xA0 }
  - { offsetInCU: 0xAE08, offset: 0xAE08, size: 0x8, addend: 0x0, symName: __ZNSt3__116allocator_traitsINS_9allocatorIP10SubscriberEEE7destroyB7v160006IS3_vEEvRS4_PT_, symObjAddr: 0xEF8, symBinAddr: 0x100004FA4, symSize: 0x2C }
  - { offsetInCU: 0xAE45, offset: 0xAE45, size: 0x8, addend: 0x0, symName: __ZNSt3__19allocatorIP10SubscriberE7destroyB7v160006EPS2_, symObjAddr: 0xF24, symBinAddr: 0x100004FD0, symSize: 0x14 }
  - { offsetInCU: 0xAE78, offset: 0xAE78, size: 0x8, addend: 0x0, symName: __ZNSt3__19allocatorIP10SubscriberE10deallocateB7v160006EPS2_m, symObjAddr: 0xF38, symBinAddr: 0x100004FE4, symSize: 0x70 }
  - { offsetInCU: 0xAEB9, offset: 0xAEB9, size: 0x8, addend: 0x0, symName: __ZNSt3__117__compressed_pairIPP10SubscriberNS_9allocatorIS2_EEE6secondB7v160006Ev, symObjAddr: 0x1024, symBinAddr: 0x1000050D0, symSize: 0x24 }
  - { offsetInCU: 0xAEDE, offset: 0xAEDE, size: 0x8, addend: 0x0, symName: __ZNSt3__122__compressed_pair_elemINS_9allocatorIP10SubscriberEELi1ELb1EE5__getB7v160006Ev, symObjAddr: 0x1048, symBinAddr: 0x1000050F4, symSize: 0x14 }
  - { offsetInCU: 0xAF03, offset: 0xAF03, size: 0x8, addend: 0x0, symName: __ZNKSt3__16vectorIP10SubscriberNS_9allocatorIS2_EEE9__end_capB7v160006Ev, symObjAddr: 0x105C, symBinAddr: 0x100005108, symSize: 0x28 }
  - { offsetInCU: 0xAF28, offset: 0xAF28, size: 0x8, addend: 0x0, symName: __ZNKSt3__117__compressed_pairIPP10SubscriberNS_9allocatorIS2_EEE5firstB7v160006Ev, symObjAddr: 0x1084, symBinAddr: 0x100005130, symSize: 0x24 }
  - { offsetInCU: 0xAF4D, offset: 0xAF4D, size: 0x8, addend: 0x0, symName: __ZNKSt3__122__compressed_pair_elemIPP10SubscriberLi0ELb0EE5__getB7v160006Ev, symObjAddr: 0x10A8, symBinAddr: 0x100005154, symSize: 0x14 }
  - { offsetInCU: 0xAF72, offset: 0xAF72, size: 0x8, addend: 0x0, symName: __ZN10SubscriberC2ENSt3__112basic_stringIcNS0_11char_traitsIcEENS0_9allocatorIcEEEE, symObjAddr: 0x10BC, symBinAddr: 0x100005168, symSize: 0x9C }
  - { offsetInCU: 0xAFAA, offset: 0xAFAA, size: 0x8, addend: 0x0, symName: __ZN11ISubscriberC2Ev, symObjAddr: 0x1158, symBinAddr: 0x100005204, symSize: 0x24 }
  - { offsetInCU: 0xAFD5, offset: 0xAFD5, size: 0x8, addend: 0x0, symName: __ZN10Subscriber6updateENSt3__112basic_stringIcNS0_11char_traitsIcEENS0_9allocatorIcEEEE, symObjAddr: 0x117C, symBinAddr: 0x100005228, symSize: 0x4C }
  - { offsetInCU: 0xB009, offset: 0xB009, size: 0x8, addend: 0x0, symName: __ZNSt3__113basic_ostreamIcNS_11char_traitsIcEEElsB7v160006EPFRS3_S4_E, symObjAddr: 0x125C, symBinAddr: 0x100005308, symSize: 0x2C }
  - { offsetInCU: 0xB03C, offset: 0xB03C, size: 0x8, addend: 0x0, symName: __ZNKSt3__112basic_stringIcNS_11char_traitsIcEENS_9allocatorIcEEE4dataB7v160006Ev, symObjAddr: 0x14D4, symBinAddr: 0x100005580, symSize: 0x28 }
  - { offsetInCU: 0xB061, offset: 0xB061, size: 0x8, addend: 0x0, symName: __ZNKSt3__112basic_stringIcNS_11char_traitsIcEENS_9allocatorIcEEE4sizeB7v160006Ev, symObjAddr: 0x14FC, symBinAddr: 0x1000055A8, symSize: 0x54 }
  - { offsetInCU: 0xB0A4, offset: 0xB0A4, size: 0x8, addend: 0x0, symName: __ZNKSt3__113basic_ostreamIcNS_11char_traitsIcEEE6sentrycvbB7v160006Ev, symObjAddr: 0x1550, symBinAddr: 0x1000055FC, symSize: 0x1C }
  - { offsetInCU: 0xB0C9, offset: 0xB0C9, size: 0x8, addend: 0x0, symName: __ZNSt3__119ostreambuf_iteratorIcNS_11char_traitsIcEEEC1B7v160006ERNS_13basic_ostreamIcS2_EE, symObjAddr: 0x17B4, symBinAddr: 0x100005860, symSize: 0x34 }
  - { offsetInCU: 0xB100, offset: 0xB100, size: 0x8, addend: 0x0, symName: __ZNKSt3__18ios_base5flagsB7v160006Ev, symObjAddr: 0x17E8, symBinAddr: 0x100005894, symSize: 0x18 }
  - { offsetInCU: 0xB127, offset: 0xB127, size: 0x8, addend: 0x0, symName: __ZNKSt3__19basic_iosIcNS_11char_traitsIcEEE4fillB7v160006Ev, symObjAddr: 0x1800, symBinAddr: 0x1000058AC, symSize: 0x64 }
  - { offsetInCU: 0xB14D, offset: 0xB14D, size: 0x8, addend: 0x0, symName: __ZNKSt3__119ostreambuf_iteratorIcNS_11char_traitsIcEEE6failedB7v160006Ev, symObjAddr: 0x1864, symBinAddr: 0x100005910, symSize: 0x24 }
  - { offsetInCU: 0xB172, offset: 0xB172, size: 0x8, addend: 0x0, symName: __ZNSt3__19basic_iosIcNS_11char_traitsIcEEE8setstateB7v160006Ej, symObjAddr: 0x1888, symBinAddr: 0x100005934, symSize: 0x2C }
  - { offsetInCU: 0xB1A6, offset: 0xB1A6, size: 0x8, addend: 0x0, symName: __ZNKSt3__18ios_base5widthB7v160006Ev, symObjAddr: 0x18B4, symBinAddr: 0x100005960, symSize: 0x18 }
  - { offsetInCU: 0xB1CD, offset: 0xB1CD, size: 0x8, addend: 0x0, symName: __ZNSt3__115basic_streambufIcNS_11char_traitsIcEEE5sputnB7v160006EPKcl, symObjAddr: 0x18CC, symBinAddr: 0x100005978, symSize: 0x3C }
  - { offsetInCU: 0xB20E, offset: 0xB20E, size: 0x8, addend: 0x0, symName: __ZNSt3__112basic_stringIcNS_11char_traitsIcEENS_9allocatorIcEEEC1B7v160006Emc, symObjAddr: 0x1908, symBinAddr: 0x1000059B4, symSize: 0x3C }
  - { offsetInCU: 0xB255, offset: 0xB255, size: 0x8, addend: 0x0, symName: __ZNSt3__18ios_base5widthB7v160006El, symObjAddr: 0x1944, symBinAddr: 0x1000059F0, symSize: 0x2C }
  - { offsetInCU: 0xB29A, offset: 0xB29A, size: 0x8, addend: 0x0, symName: __ZNSt3__112basic_stringIcNS_11char_traitsIcEENS_9allocatorIcEEEC2B7v160006Emc, symObjAddr: 0x1970, symBinAddr: 0x100005A1C, symSize: 0x54 }
  - { offsetInCU: 0xB2E1, offset: 0xB2E1, size: 0x8, addend: 0x0, symName: __ZNSt3__119ostreambuf_iteratorIcNS_11char_traitsIcEEEC2B7v160006ERNS_13basic_ostreamIcS2_EE, symObjAddr: 0x19C4, symBinAddr: 0x100005A70, symSize: 0x68 }
  - { offsetInCU: 0xB318, offset: 0xB318, size: 0x8, addend: 0x0, symName: __ZNKSt3__19basic_iosIcNS_11char_traitsIcEEE5rdbufB7v160006Ev, symObjAddr: 0x1A2C, symBinAddr: 0x100005AD8, symSize: 0x24 }
  - { offsetInCU: 0xB33E, offset: 0xB33E, size: 0x8, addend: 0x0, symName: __ZNKSt3__18ios_base5rdbufB7v160006Ev, symObjAddr: 0x1A50, symBinAddr: 0x100005AFC, symSize: 0x18 }
  - { offsetInCU: 0xB363, offset: 0xB363, size: 0x8, addend: 0x0, symName: __ZNSt3__111char_traitsIcE11eq_int_typeEii, symObjAddr: 0x1A68, symBinAddr: 0x100005B14, symSize: 0x28 }
  - { offsetInCU: 0xB394, offset: 0xB394, size: 0x8, addend: 0x0, symName: __ZNSt3__111char_traitsIcE3eofEv, symObjAddr: 0x1A90, symBinAddr: 0x100005B3C, symSize: 0x8 }
  - { offsetInCU: 0xB3A8, offset: 0xB3A8, size: 0x8, addend: 0x0, symName: __ZNKSt3__19basic_iosIcNS_11char_traitsIcEEE5widenB7v160006Ec, symObjAddr: 0x1A98, symBinAddr: 0x100005B44, symSize: 0x8C }
  - { offsetInCU: 0xB414, offset: 0xB414, size: 0x8, addend: 0x0, symName: __ZNKSt3__15ctypeIcE5widenB7v160006Ec, symObjAddr: 0x1B50, symBinAddr: 0x100005BFC, symSize: 0x38 }
  - { offsetInCU: 0xB448, offset: 0xB448, size: 0x8, addend: 0x0, symName: __ZNSt3__18ios_base8setstateB7v160006Ej, symObjAddr: 0x1B88, symBinAddr: 0x100005C34, symSize: 0x34 }
  - { offsetInCU: 0xB47D, offset: 0xB47D, size: 0x8, addend: 0x0, symName: __ZNKSt3__112basic_stringIcNS_11char_traitsIcEENS_9allocatorIcEEE13__get_pointerB7v160006Ev, symObjAddr: 0x1BD0, symBinAddr: 0x100005C7C, symSize: 0x54 }
  - { offsetInCU: 0xB4A2, offset: 0xB4A2, size: 0x8, addend: 0x0, symName: __ZNKSt3__112basic_stringIcNS_11char_traitsIcEENS_9allocatorIcEEE9__is_longB7v160006Ev, symObjAddr: 0x1C24, symBinAddr: 0x100005CD0, symSize: 0x74 }
  - { offsetInCU: 0xB4C7, offset: 0xB4C7, size: 0x8, addend: 0x0, symName: __ZNKSt3__112basic_stringIcNS_11char_traitsIcEENS_9allocatorIcEEE18__get_long_pointerB7v160006Ev, symObjAddr: 0x1C98, symBinAddr: 0x100005D44, symSize: 0x28 }
  - { offsetInCU: 0xB4EC, offset: 0xB4EC, size: 0x8, addend: 0x0, symName: __ZNKSt3__112basic_stringIcNS_11char_traitsIcEENS_9allocatorIcEEE19__get_short_pointerB7v160006Ev, symObjAddr: 0x1CC0, symBinAddr: 0x100005D6C, symSize: 0x28 }
  - { offsetInCU: 0xB511, offset: 0xB511, size: 0x8, addend: 0x0, symName: __ZNKSt3__117__compressed_pairINS_12basic_stringIcNS_11char_traitsIcEENS_9allocatorIcEEE5__repES5_E5firstB7v160006Ev, symObjAddr: 0x1CE8, symBinAddr: 0x100005D94, symSize: 0x24 }
  - { offsetInCU: 0xB536, offset: 0xB536, size: 0x8, addend: 0x0, symName: __ZNKSt3__122__compressed_pair_elemINS_12basic_stringIcNS_11char_traitsIcEENS_9allocatorIcEEE5__repELi0ELb0EE5__getB7v160006Ev, symObjAddr: 0x1D0C, symBinAddr: 0x100005DB8, symSize: 0x14 }
  - { offsetInCU: 0xB55B, offset: 0xB55B, size: 0x8, addend: 0x0, symName: __ZNSt3__114pointer_traitsIPKcE10pointer_toB7v160006ERS1_, symObjAddr: 0x1D20, symBinAddr: 0x100005DCC, symSize: 0x14 }
  - { offsetInCU: 0xB57E, offset: 0xB57E, size: 0x8, addend: 0x0, symName: __ZNKSt3__112basic_stringIcNS_11char_traitsIcEENS_9allocatorIcEEE15__get_long_sizeB7v160006Ev, symObjAddr: 0x1D34, symBinAddr: 0x100005DE0, symSize: 0x28 }
  - { offsetInCU: 0xB5A3, offset: 0xB5A3, size: 0x8, addend: 0x0, symName: __ZNKSt3__112basic_stringIcNS_11char_traitsIcEENS_9allocatorIcEEE16__get_short_sizeB7v160006Ev, symObjAddr: 0x1D5C, symBinAddr: 0x100005E08, symSize: 0x34 }
  - { offsetInCU: 0xB5C8, offset: 0xB5C8, size: 0x8, addend: 0x0, symName: __ZNSt3__111char_traitsIcE6lengthEPKc, symObjAddr: 0x1D90, symBinAddr: 0x100005E3C, symSize: 0x48 }
  - { offsetInCU: 0xB5EB, offset: 0xB5EB, size: 0x8, addend: 0x0, symName: __ZNSt3__16vectorIP10SubscriberNS_9allocatorIS2_EEE9push_backB7v160006ERKS2_, symObjAddr: 0x1DFC, symBinAddr: 0x100005EA8, symSize: 0x6C }
  - { offsetInCU: 0xB620, offset: 0xB620, size: 0x8, addend: 0x0, symName: __ZNSt3__16vectorIP10SubscriberNS_9allocatorIS2_EEE9__end_capB7v160006Ev, symObjAddr: 0x1E68, symBinAddr: 0x100005F14, symSize: 0x28 }
  - { offsetInCU: 0xB645, offset: 0xB645, size: 0x8, addend: 0x0, symName: __ZNSt3__16vectorIP10SubscriberNS_9allocatorIS2_EEE22__construct_one_at_endB7v160006IJRKS2_EEEvDpOT_, symObjAddr: 0x1E90, symBinAddr: 0x100005F3C, symSize: 0x98 }
  - { offsetInCU: 0xB693, offset: 0xB693, size: 0x8, addend: 0x0, symName: __ZNSt3__16vectorIP10SubscriberNS_9allocatorIS2_EEE21__push_back_slow_pathIRKS2_EEvOT_, symObjAddr: 0x1F28, symBinAddr: 0x100005FD4, symSize: 0xE0 }
  - { offsetInCU: 0xB6EF, offset: 0xB6EF, size: 0x8, addend: 0x0, symName: __ZNSt3__117__compressed_pairIPP10SubscriberNS_9allocatorIS2_EEE5firstB7v160006Ev, symObjAddr: 0x2008, symBinAddr: 0x1000060B4, symSize: 0x24 }
  - { offsetInCU: 0xB714, offset: 0xB714, size: 0x8, addend: 0x0, symName: __ZNSt3__122__compressed_pair_elemIPP10SubscriberLi0ELb0EE5__getB7v160006Ev, symObjAddr: 0x202C, symBinAddr: 0x1000060D8, symSize: 0x14 }
  - { offsetInCU: 0xB752, offset: 0xB752, size: 0x8, addend: 0x0, symName: __ZNSt3__16vectorIP10SubscriberNS_9allocatorIS2_EEE21_ConstructTransactionC1B7v160006ERS5_m, symObjAddr: 0x2040, symBinAddr: 0x1000060EC, symSize: 0x3C }
  - { offsetInCU: 0xB799, offset: 0xB799, size: 0x8, addend: 0x0, symName: __ZNSt3__116allocator_traitsINS_9allocatorIP10SubscriberEEE9constructB7v160006IS3_JRKS3_EvEEvRS4_PT_DpOT0_, symObjAddr: 0x207C, symBinAddr: 0x100006128, symSize: 0x34 }
  - { offsetInCU: 0xB7F0, offset: 0xB7F0, size: 0x8, addend: 0x0, symName: __ZNSt3__16vectorIP10SubscriberNS_9allocatorIS2_EEE21_ConstructTransactionD1B7v160006Ev, symObjAddr: 0x20B0, symBinAddr: 0x10000615C, symSize: 0x2C }
  - { offsetInCU: 0xB819, offset: 0xB819, size: 0x8, addend: 0x0, symName: __ZNSt3__16vectorIP10SubscriberNS_9allocatorIS2_EEE21_ConstructTransactionC2B7v160006ERS5_m, symObjAddr: 0x20DC, symBinAddr: 0x100006188, symSize: 0x44 }
  - { offsetInCU: 0xB860, offset: 0xB860, size: 0x8, addend: 0x0, symName: __ZNSt3__19allocatorIP10SubscriberE9constructB7v160006IS2_JRKS2_EEEvPT_DpOT0_, symObjAddr: 0x2120, symBinAddr: 0x1000061CC, symSize: 0x28 }
  - { offsetInCU: 0xB8B5, offset: 0xB8B5, size: 0x8, addend: 0x0, symName: __ZNSt3__16vectorIP10SubscriberNS_9allocatorIS2_EEE21_ConstructTransactionD2B7v160006Ev, symObjAddr: 0x2148, symBinAddr: 0x1000061F4, symSize: 0x20 }
  - { offsetInCU: 0xB8DE, offset: 0xB8DE, size: 0x8, addend: 0x0, symName: __ZNKSt3__16vectorIP10SubscriberNS_9allocatorIS2_EEE11__recommendB7v160006Em, symObjAddr: 0x2168, symBinAddr: 0x100006214, symSize: 0xB4 }
  - { offsetInCU: 0xB931, offset: 0xB931, size: 0x8, addend: 0x0, symName: __ZNSt3__114__split_bufferIP10SubscriberRNS_9allocatorIS2_EEEC1EmmS5_, symObjAddr: 0x221C, symBinAddr: 0x1000062C8, symSize: 0x44 }
  - { offsetInCU: 0xB986, offset: 0xB986, size: 0x8, addend: 0x0, symName: __ZNSt3__114__split_bufferIP10SubscriberRNS_9allocatorIS2_EEED1Ev, symObjAddr: 0x2378, symBinAddr: 0x100006424, symSize: 0x2C }
  - { offsetInCU: 0xB9B1, offset: 0xB9B1, size: 0x8, addend: 0x0, symName: __ZNKSt3__16vectorIP10SubscriberNS_9allocatorIS2_EEE8max_sizeEv, symObjAddr: 0x23A4, symBinAddr: 0x100006450, symSize: 0x74 }
  - { offsetInCU: 0xB9D7, offset: 0xB9D7, size: 0x8, addend: 0x0, symName: __ZNKSt3__16vectorIP10SubscriberNS_9allocatorIS2_EEE20__throw_length_errorB7v160006Ev, symObjAddr: 0x2418, symBinAddr: 0x1000064C4, symSize: 0x1C }
  - { offsetInCU: 0xBA06, offset: 0xBA06, size: 0x8, addend: 0x0, symName: __ZNSt3__116allocator_traitsINS_9allocatorIP10SubscriberEEE8max_sizeB7v160006IS4_vEEmRKS4_, symObjAddr: 0x248C, symBinAddr: 0x100006538, symSize: 0x24 }
  - { offsetInCU: 0xBA34, offset: 0xBA34, size: 0x8, addend: 0x0, symName: __ZNKSt3__16vectorIP10SubscriberNS_9allocatorIS2_EEE7__allocB7v160006Ev, symObjAddr: 0x24B0, symBinAddr: 0x10000655C, symSize: 0x28 }
  - { offsetInCU: 0xBA59, offset: 0xBA59, size: 0x8, addend: 0x0, symName: __ZNSt3__114numeric_limitsIlE3maxB7v160006Ev, symObjAddr: 0x24D8, symBinAddr: 0x100006584, symSize: 0x14 }
  - { offsetInCU: 0xBA81, offset: 0xBA81, size: 0x8, addend: 0x0, symName: __ZNKSt3__16__lessImmEclB7v160006ERKmS3_, symObjAddr: 0x2540, symBinAddr: 0x1000065EC, symSize: 0x34 }
  - { offsetInCU: 0xBAC2, offset: 0xBAC2, size: 0x8, addend: 0x0, symName: __ZNKSt3__19allocatorIP10SubscriberE8max_sizeB7v160006Ev, symObjAddr: 0x2574, symBinAddr: 0x100006620, symSize: 0x14 }
  - { offsetInCU: 0xBAE7, offset: 0xBAE7, size: 0x8, addend: 0x0, symName: __ZNKSt3__117__compressed_pairIPP10SubscriberNS_9allocatorIS2_EEE6secondB7v160006Ev, symObjAddr: 0x2588, symBinAddr: 0x100006634, symSize: 0x24 }
  - { offsetInCU: 0xBB0C, offset: 0xBB0C, size: 0x8, addend: 0x0, symName: __ZNKSt3__122__compressed_pair_elemINS_9allocatorIP10SubscriberEELi1ELb1EE5__getB7v160006Ev, symObjAddr: 0x25AC, symBinAddr: 0x100006658, symSize: 0x14 }
  - { offsetInCU: 0xBB31, offset: 0xBB31, size: 0x8, addend: 0x0, symName: __ZNSt3__123__libcpp_numeric_limitsIlLb1EE3maxB7v160006Ev, symObjAddr: 0x25C0, symBinAddr: 0x10000666C, symSize: 0x8 }
  - { offsetInCU: 0xBB45, offset: 0xBB45, size: 0x8, addend: 0x0, symName: __ZNSt12length_errorC1B7v160006EPKc, symObjAddr: 0x262C, symBinAddr: 0x1000066D8, symSize: 0x34 }
  - { offsetInCU: 0xBB7C, offset: 0xBB7C, size: 0x8, addend: 0x0, symName: __ZNSt12length_errorC2B7v160006EPKc, symObjAddr: 0x2660, symBinAddr: 0x10000670C, symSize: 0x4C }
  - { offsetInCU: 0xBBB3, offset: 0xBBB3, size: 0x8, addend: 0x0, symName: __ZNSt3__114__split_bufferIP10SubscriberRNS_9allocatorIS2_EEEC2EmmS5_, symObjAddr: 0x2700, symBinAddr: 0x1000067AC, symSize: 0xD4 }
  - { offsetInCU: 0xBC26, offset: 0xBC26, size: 0x8, addend: 0x0, symName: __ZNSt3__117__compressed_pairIPP10SubscriberRNS_9allocatorIS2_EEEC1B7v160006IDnS6_EEOT_OT0_, symObjAddr: 0x27D4, symBinAddr: 0x100006880, symSize: 0x3C }
  - { offsetInCU: 0xBC7D, offset: 0xBC7D, size: 0x8, addend: 0x0, symName: __ZNSt3__114__split_bufferIP10SubscriberRNS_9allocatorIS2_EEE7__allocB7v160006Ev, symObjAddr: 0x2850, symBinAddr: 0x1000068FC, symSize: 0x28 }
  - { offsetInCU: 0xBCA2, offset: 0xBCA2, size: 0x8, addend: 0x0, symName: __ZNSt3__114__split_bufferIP10SubscriberRNS_9allocatorIS2_EEE9__end_capB7v160006Ev, symObjAddr: 0x2878, symBinAddr: 0x100006924, symSize: 0x28 }
  - { offsetInCU: 0xBCC7, offset: 0xBCC7, size: 0x8, addend: 0x0, symName: __ZNSt3__117__compressed_pairIPP10SubscriberRNS_9allocatorIS2_EEEC2B7v160006IDnS6_EEOT_OT0_, symObjAddr: 0x28A0, symBinAddr: 0x10000694C, symSize: 0x48 }
  - { offsetInCU: 0xBD1E, offset: 0xBD1E, size: 0x8, addend: 0x0, symName: __ZNSt3__122__compressed_pair_elemIRNS_9allocatorIP10SubscriberEELi1ELb0EEC2B7v160006IS5_vEEOT_, symObjAddr: 0x28E8, symBinAddr: 0x100006994, symSize: 0x20 }
  - { offsetInCU: 0xBD5F, offset: 0xBD5F, size: 0x8, addend: 0x0, symName: __ZNSt3__19allocatorIP10SubscriberE8allocateB7v160006Em, symObjAddr: 0x2908, symBinAddr: 0x1000069B4, symSize: 0x84 }
  - { offsetInCU: 0xBD92, offset: 0xBD92, size: 0x8, addend: 0x0, symName: __ZNSt3__117__compressed_pairIPP10SubscriberRNS_9allocatorIS2_EEE6secondB7v160006Ev, symObjAddr: 0x298C, symBinAddr: 0x100006A38, symSize: 0x28 }
  - { offsetInCU: 0xBDB7, offset: 0xBDB7, size: 0x8, addend: 0x0, symName: __ZNSt3__122__compressed_pair_elemIRNS_9allocatorIP10SubscriberEELi1ELb0EE5__getB7v160006Ev, symObjAddr: 0x29B4, symBinAddr: 0x100006A60, symSize: 0x18 }
  - { offsetInCU: 0xBDDC, offset: 0xBDDC, size: 0x8, addend: 0x0, symName: __ZNSt3__117__compressed_pairIPP10SubscriberRNS_9allocatorIS2_EEE5firstB7v160006Ev, symObjAddr: 0x29CC, symBinAddr: 0x100006A78, symSize: 0x24 }
  - { offsetInCU: 0xBE01, offset: 0xBE01, size: 0x8, addend: 0x0, symName: __ZNSt3__116reverse_iteratorIPP10SubscriberEC1B7v160006ES3_, symObjAddr: 0x2AD8, symBinAddr: 0x100006B84, symSize: 0x34 }
  - { offsetInCU: 0xBE38, offset: 0xBE38, size: 0x8, addend: 0x0, symName: __ZNKSt3__116reverse_iteratorIPP10SubscriberE4baseB7v160006Ev, symObjAddr: 0x2B0C, symBinAddr: 0x100006BB8, symSize: 0x18 }
  - { offsetInCU: 0xBE5D, offset: 0xBE5D, size: 0x8, addend: 0x0, symName: __ZNKSt3__16vectorIP10SubscriberNS_9allocatorIS2_EEE14__annotate_newB7v160006Em, symObjAddr: 0x2B60, symBinAddr: 0x100006C0C, symSize: 0xAC }
  - { offsetInCU: 0xBE91, offset: 0xBE91, size: 0x8, addend: 0x0, symName: __ZNKSt3__116reverse_iteratorIPP10SubscriberEdeB7v160006Ev, symObjAddr: 0x2CB4, symBinAddr: 0x100006D60, symSize: 0x28 }
  - { offsetInCU: 0xBEC4, offset: 0xBEC4, size: 0x8, addend: 0x0, symName: __ZNSt3__116reverse_iteratorIPP10SubscriberEppB7v160006Ev, symObjAddr: 0x2CDC, symBinAddr: 0x100006D88, symSize: 0x20 }
  - { offsetInCU: 0xBEEE, offset: 0xBEEE, size: 0x8, addend: 0x0, symName: __ZNSt3__119__to_address_helperINS_16reverse_iteratorIPP10SubscriberEEvE6__callB7v160006ERKS5_, symObjAddr: 0x2D74, symBinAddr: 0x100006E20, symSize: 0x4C }
  - { offsetInCU: 0xBF11, offset: 0xBF11, size: 0x8, addend: 0x0, symName: __ZNKSt3__116reverse_iteratorIPP10SubscriberEptB7v160006Ev, symObjAddr: 0x2DC0, symBinAddr: 0x100006E6C, symSize: 0x24 }
  - { offsetInCU: 0xBF59, offset: 0xBF59, size: 0x8, addend: 0x0, symName: __ZNKSt3__111__move_loopINS_17_ClassicAlgPolicyEEclB7v160006INS_16reverse_iteratorIPP10SubscriberEES8_S8_EENS_4pairIT_T1_EESA_T0_SB_, symObjAddr: 0x3074, symBinAddr: 0x100007120, symSize: 0xA0 }
  - { offsetInCU: 0xBFC8, offset: 0xBFC8, size: 0x8, addend: 0x0, symName: __ZNSt3__18_IterOpsINS_17_ClassicAlgPolicyEE11__iter_moveB7v160006IRNS_16reverse_iteratorIPP10SubscriberEEEENS_9enable_ifIXsr12is_referenceIDTdeclsr3stdE7declvalIRT_EEEEE5valueEDTclsr3stdE4movedeclsr3stdE7declvalISC_EEEEE4typeEOSB_, symObjAddr: 0x3274, symBinAddr: 0x100007320, symSize: 0x28 }
  - { offsetInCU: 0xBFF4, offset: 0xBFF4, size: 0x8, addend: 0x0, symName: __ZNSt3__18_IterOpsINS_17_ClassicAlgPolicyEE25__validate_iter_referenceB7v160006IRNS_16reverse_iteratorIPP10SubscriberEEEEvv, symObjAddr: 0x329C, symBinAddr: 0x100007348, symSize: 0x4 }
  - { offsetInCU: 0xC012, offset: 0xC012, size: 0x8, addend: 0x0, symName: __ZNSt3__118__unwrap_iter_implINS_16reverse_iteratorIPP10SubscriberEELb0EE8__unwrapB7v160006ES5_, symObjAddr: 0x32A0, symBinAddr: 0x10000734C, symSize: 0x24 }
  - { offsetInCU: 0xC035, offset: 0xC035, size: 0x8, addend: 0x0, symName: __ZNSt3__14pairINS_16reverse_iteratorIPP10SubscriberEES5_EC1B7v160006ERKS5_S8_, symObjAddr: 0x32C4, symBinAddr: 0x100007370, symSize: 0x3C }
  - { offsetInCU: 0xC07A, offset: 0xC07A, size: 0x8, addend: 0x0, symName: __ZNSt3__14pairINS_16reverse_iteratorIPP10SubscriberEES5_EC2B7v160006ERKS5_S8_, symObjAddr: 0x3300, symBinAddr: 0x1000073AC, symSize: 0x34 }
  - { offsetInCU: 0xC0BF, offset: 0xC0BF, size: 0x8, addend: 0x0, symName: __ZNSt3__118__unwrap_iter_implINS_16reverse_iteratorIPP10SubscriberEELb0EE8__rewrapB7v160006ES5_S5_, symObjAddr: 0x3334, symBinAddr: 0x1000073E0, symSize: 0x2C }
  - { offsetInCU: 0xC0ED, offset: 0xC0ED, size: 0x8, addend: 0x0, symName: __ZNSt3__116reverse_iteratorIPP10SubscriberEC2B7v160006ES3_, symObjAddr: 0x3360, symBinAddr: 0x10000740C, symSize: 0x28 }
  - { offsetInCU: 0xC124, offset: 0xC124, size: 0x8, addend: 0x0, symName: __ZNSt3__114__split_bufferIP10SubscriberRNS_9allocatorIS2_EEED2Ev, symObjAddr: 0x3388, symBinAddr: 0x100007434, symSize: 0x80 }
  - { offsetInCU: 0xC14F, offset: 0xC14F, size: 0x8, addend: 0x0, symName: __ZNSt3__114__split_bufferIP10SubscriberRNS_9allocatorIS2_EEE5clearB7v160006Ev, symObjAddr: 0x3408, symBinAddr: 0x1000074B4, symSize: 0x28 }
  - { offsetInCU: 0xC174, offset: 0xC174, size: 0x8, addend: 0x0, symName: __ZNKSt3__114__split_bufferIP10SubscriberRNS_9allocatorIS2_EEE8capacityB7v160006Ev, symObjAddr: 0x3430, symBinAddr: 0x1000074DC, symSize: 0x40 }
  - { offsetInCU: 0xC199, offset: 0xC199, size: 0x8, addend: 0x0, symName: __ZNSt3__114__split_bufferIP10SubscriberRNS_9allocatorIS2_EEE17__destruct_at_endB7v160006EPS2_, symObjAddr: 0x3470, symBinAddr: 0x10000751C, symSize: 0x2C }
  - { offsetInCU: 0xC1CC, offset: 0xC1CC, size: 0x8, addend: 0x0, symName: __ZNSt3__114__split_bufferIP10SubscriberRNS_9allocatorIS2_EEE17__destruct_at_endB7v160006EPS2_NS_17integral_constantIbLb0EEE, symObjAddr: 0x349C, symBinAddr: 0x100007548, symSize: 0x94 }
  - { offsetInCU: 0xC20B, offset: 0xC20B, size: 0x8, addend: 0x0, symName: __ZNKSt3__114__split_bufferIP10SubscriberRNS_9allocatorIS2_EEE9__end_capB7v160006Ev, symObjAddr: 0x3530, symBinAddr: 0x1000075DC, symSize: 0x28 }
  - { offsetInCU: 0xC230, offset: 0xC230, size: 0x8, addend: 0x0, symName: __ZNKSt3__117__compressed_pairIPP10SubscriberRNS_9allocatorIS2_EEE5firstB7v160006Ev, symObjAddr: 0x3558, symBinAddr: 0x100007604, symSize: 0x24 }
  - { offsetInCU: 0xC255, offset: 0xC255, size: 0x8, addend: 0x0, symName: __ZN9Publisher6notifyEv, symObjAddr: 0x357C, symBinAddr: 0x100007628, symSize: 0xD4 }
  - { offsetInCU: 0xC28E, offset: 0xC28E, size: 0x8, addend: 0x0, symName: __ZNSt3__16vectorIP10SubscriberNS_9allocatorIS2_EEEixB7v160006Em, symObjAddr: 0x3650, symBinAddr: 0x1000076FC, symSize: 0x24 }
  - { offsetInCU: 0xC2C4, offset: 0xC2C4, size: 0x8, addend: 0x0, symName: __ZN10SubscriberD2Ev, symObjAddr: 0x3674, symBinAddr: 0x100007720, symSize: 0x40 }
  - { offsetInCU: 0xC2EF, offset: 0xC2EF, size: 0x8, addend: 0x0, symName: __ZN9PublisherD2Ev, symObjAddr: 0x36B4, symBinAddr: 0x100007760, symSize: 0x68 }
  - { offsetInCU: 0xC31A, offset: 0xC31A, size: 0x8, addend: 0x0, symName: __ZNSt3__112basic_stringIcNS_11char_traitsIcEENS_9allocatorIcEEEC2B7v160006IDnEEPKc, symObjAddr: 0x371C, symBinAddr: 0x1000077C8, symSize: 0x60 }
...
